target datalayout = "e-m:e-p270:32:32-p271:32:32-p272:64:64-i64:64-i128:128-f80:128-n8:16:32:64-S128"
target triple = "x86_64-unknown-linux-gnu"

%"class.std::set.11" = type { %"class.std::_Rb_tree.12" }
%"class.std::_Rb_tree.12" = type { %"struct.std::_Rb_tree<QuantLib::Observer *, QuantLib::Observer *, std::_Identity<QuantLib::Observer *>, std::less<QuantLib::Observer *>>::_Rb_tree_impl" }
%"struct.std::_Rb_tree<QuantLib::Observer *, QuantLib::Observer *, std::_Identity<QuantLib::Observer *>, std::less<QuantLib::Observer *>>::_Rb_tree_impl" = type { [8 x i8], %"struct.std::_Rb_tree_header" }
%"struct.std::_Rb_tree_header" = type { %"struct.std::_Rb_tree_node_base", i64 }
%"struct.std::_Rb_tree_node_base" = type { i32, ptr, ptr, ptr }
%"class.QuantLib::Date" = type { i64 }
%"class.boost::detail::shared_count" = type { ptr }
%"class.QuantLib::Array" = type { %"class.std::unique_ptr", i64 }
%"class.std::unique_ptr" = type { %"struct.std::__uniq_ptr_data" }
%"struct.std::__uniq_ptr_data" = type { %"class.std::__uniq_ptr_impl" }
%"class.std::__uniq_ptr_impl" = type { %"class.std::tuple" }
%"class.std::tuple" = type { %"struct.std::_Tuple_impl" }
%"struct.std::_Tuple_impl" = type { %"struct.std::_Head_base.1" }
%"struct.std::_Head_base.1" = type { ptr }
%"class.std::set" = type { %"class.std::_Rb_tree" }
%"class.std::_Rb_tree" = type { %"struct.std::_Rb_tree<boost::shared_ptr<QuantLib::Observable>, boost::shared_ptr<QuantLib::Observable>, std::_Identity<boost::shared_ptr<QuantLib::Observable>>, std::less<boost::shared_ptr<QuantLib::Observable>>>::_Rb_tree_impl" }
%"struct.std::_Rb_tree<boost::shared_ptr<QuantLib::Observable>, boost::shared_ptr<QuantLib::Observable>, std::_Identity<boost::shared_ptr<QuantLib::Observable>>, std::less<boost::shared_ptr<QuantLib::Observable>>>::_Rb_tree_impl" = type { [8 x i8], %"struct.std::_Rb_tree_header" }
%"class.QuantLib::Observable" = type { ptr, %"class.std::set.11" }
%"class.QuantLib::Observer" = type { ptr, %"class.std::set" }
%"class.QuantLib::Handle.61" = type { %"class.boost::shared_ptr.62" }
%"class.boost::shared_ptr.62" = type { ptr, %"class.boost::detail::shared_count" }
%"class.boost::shared_ptr.63" = type { ptr, %"class.boost::detail::shared_count" }
%"class.QuantLib::Gsr" = type { %"class.QuantLib::Gaussian1dModel.base", [7 x i8], %"class.QuantLib::CalibratedModel.base", ptr, ptr, %"class.std::vector.52", %"class.std::vector.52", %"class.std::vector.34", %"class.std::vector", %"class.QuantLib::Array", %"class.boost::shared_ptr.57", %"class.boost::shared_ptr.58", %"class.QuantLib::Observable", %"class.QuantLib::Observer" }
%"class.QuantLib::Gaussian1dModel.base" = type <{ %"class.QuantLib::TermStructureConsistentModel.base", %"class.QuantLib::LazyObject.base", [4 x i8], %"class.std::unordered_map", %"class.boost::shared_ptr.45", %"class.QuantLib::Date", i8 }>
%"class.QuantLib::TermStructureConsistentModel.base" = type { ptr, %"class.QuantLib::Handle" }
%"class.QuantLib::Handle" = type { %"class.boost::shared_ptr.39" }
%"class.boost::shared_ptr.39" = type { ptr, %"class.boost::detail::shared_count" }
%"class.QuantLib::LazyObject.base" = type <{ ptr, i8, i8, i8, i8 }>
%"class.std::unordered_map" = type { %"class.std::_Hashtable" }
%"class.std::_Hashtable" = type { ptr, i64, %"struct.std::__detail::_Hash_node_base", i64, %"struct.std::__detail::_Prime_rehash_policy", ptr }
%"struct.std::__detail::_Hash_node_base" = type { ptr }
%"struct.std::__detail::_Prime_rehash_policy" = type { float, i64 }
%"class.boost::shared_ptr.45" = type { ptr, %"class.boost::detail::shared_count" }
%"class.QuantLib::CalibratedModel.base" = type <{ ptr, %"class.std::vector.46", %"class.boost::shared_ptr.51", i32, [4 x i8], %"class.QuantLib::Array", i32 }>
%"class.std::vector.46" = type { %"struct.std::_Vector_base.47" }
%"struct.std::_Vector_base.47" = type { %"struct.std::_Vector_base<QuantLib::Parameter, std::allocator<QuantLib::Parameter>>::_Vector_impl" }
%"struct.std::_Vector_base<QuantLib::Parameter, std::allocator<QuantLib::Parameter>>::_Vector_impl" = type { %"struct.std::_Vector_base<QuantLib::Parameter, std::allocator<QuantLib::Parameter>>::_Vector_impl_data" }
%"struct.std::_Vector_base<QuantLib::Parameter, std::allocator<QuantLib::Parameter>>::_Vector_impl_data" = type { ptr, ptr, ptr }
%"class.boost::shared_ptr.51" = type { ptr, %"class.boost::detail::shared_count" }
%"class.std::vector.52" = type { %"struct.std::_Vector_base.53" }
%"struct.std::_Vector_base.53" = type { %"struct.std::_Vector_base<QuantLib::Handle<QuantLib::Quote>, std::allocator<QuantLib::Handle<QuantLib::Quote>>>::_Vector_impl" }
%"struct.std::_Vector_base<QuantLib::Handle<QuantLib::Quote>, std::allocator<QuantLib::Handle<QuantLib::Quote>>>::_Vector_impl" = type { %"struct.std::_Vector_base<QuantLib::Handle<QuantLib::Quote>, std::allocator<QuantLib::Handle<QuantLib::Quote>>>::_Vector_impl_data" }
%"struct.std::_Vector_base<QuantLib::Handle<QuantLib::Quote>, std::allocator<QuantLib::Handle<QuantLib::Quote>>>::_Vector_impl_data" = type { ptr, ptr, ptr }
%"class.std::vector.34" = type { %"struct.std::_Vector_base.35" }
%"struct.std::_Vector_base.35" = type { %"struct.std::_Vector_base<QuantLib::Date, std::allocator<QuantLib::Date>>::_Vector_impl" }
%"struct.std::_Vector_base<QuantLib::Date, std::allocator<QuantLib::Date>>::_Vector_impl" = type { %"struct.std::_Vector_base<QuantLib::Date, std::allocator<QuantLib::Date>>::_Vector_impl_data" }
%"struct.std::_Vector_base<QuantLib::Date, std::allocator<QuantLib::Date>>::_Vector_impl_data" = type { ptr, ptr, ptr }
%"class.std::vector" = type { %"struct.std::_Vector_base" }
%"struct.std::_Vector_base" = type { %"struct.std::_Vector_base<double, std::allocator<double>>::_Vector_impl" }
%"struct.std::_Vector_base<double, std::allocator<double>>::_Vector_impl" = type { %"struct.std::_Vector_base<double, std::allocator<double>>::_Vector_impl_data" }
%"struct.std::_Vector_base<double, std::allocator<double>>::_Vector_impl_data" = type { ptr, ptr, ptr }
%"class.boost::shared_ptr.57" = type { ptr, %"class.boost::detail::shared_count" }
%"class.boost::shared_ptr.58" = type { ptr, %"class.boost::detail::shared_count" }
%"class.QuantLib::Parameter" = type { %"class.boost::shared_ptr.59", %"class.QuantLib::Array", %"class.QuantLib::Constraint" }
%"class.boost::shared_ptr.59" = type { ptr, %"class.boost::detail::shared_count" }
%"class.QuantLib::Constraint" = type { %"class.boost::shared_ptr.60" }
%"class.boost::shared_ptr.60" = type { ptr, %"class.boost::detail::shared_count" }

@.str.21 = private unnamed_addr constant [8 x i8] c"px != 0\00", align 1
@.str.22 = private unnamed_addr constant [102 x i8] c"generated/home/dtcxzyw/WorkSpace/SDK/vcpkg/installed/x64-linux/include/boost/smart_ptr/shared_ptr.hpp\00", align 1
@__PRETTY_FUNCTION__._ZNK5boost10shared_ptrIN8QuantLib5QuoteEEptEv = private unnamed_addr constant [127 x i8] c"typename boost::detail::sp_member_access<T>::type boost::shared_ptr<QuantLib::Quote>::operator->() const [T = QuantLib::Quote]\00", align 1

; Function Attrs: mustprogress nounwind uwtable
define linkonce_odr noundef nonnull align 8 dereferenceable(8) ptr @_ZNSt10_Head_baseILm0EPdLb0EE7_M_headERKS1_(ptr noundef nonnull align 8 dereferenceable(8) %__b) #3 comdat align 2 {
entry:
  %__b.addr = alloca ptr, align 8
  store ptr %__b, ptr %__b.addr, align 8, !tbaa !3
  %0 = load ptr, ptr %__b.addr, align 8, !tbaa !3
  %_M_head_impl = getelementptr inbounds nuw %"struct.std::_Head_base.1", ptr %0, i32 0, i32 0
  ret ptr %_M_head_impl
}

; Function Attrs: mustprogress nounwind uwtable
define linkonce_odr noundef nonnull align 8 dereferenceable(8) ptr @_ZNSt11_Tuple_implILm0EJPdSt14default_deleteIA_dEEE7_M_headERKS4_(ptr noundef nonnull align 8 dereferenceable(8) %__t) #3 comdat align 2 {
entry:
  %__t.addr = alloca ptr, align 8
  store ptr %__t, ptr %__t.addr, align 8, !tbaa !3
  %0 = load ptr, ptr %__t.addr, align 8, !tbaa !3
  %call = call noundef nonnull align 8 dereferenceable(8) ptr @_ZNSt10_Head_baseILm0EPdLb0EE7_M_headERKS1_(ptr noundef nonnull align 8 dereferenceable(8) %0) #17
  ret ptr %call
}

; Function Attrs: mustprogress nounwind uwtable
define linkonce_odr noundef nonnull align 8 dereferenceable(8) ptr @_ZSt12__get_helperILm0EPdJSt14default_deleteIA_dEEERKT0_RKSt11_Tuple_implIXT_EJS4_DpT1_EE(ptr noundef nonnull align 8 dereferenceable(8) %__t) #3 comdat {
entry:
  %__t.addr = alloca ptr, align 8
  store ptr %__t, ptr %__t.addr, align 8, !tbaa !3
  %0 = load ptr, ptr %__t.addr, align 8, !tbaa !3
  %call = call noundef nonnull align 8 dereferenceable(8) ptr @_ZNSt11_Tuple_implILm0EJPdSt14default_deleteIA_dEEE7_M_headERKS4_(ptr noundef nonnull align 8 dereferenceable(8) %0) #17
  ret ptr %call
}

; Function Attrs: mustprogress nounwind uwtable
define linkonce_odr noundef nonnull align 8 dereferenceable(8) ptr @_ZSt3getILm0EJPdSt14default_deleteIA_dEEERKNSt13tuple_elementIXT_ESt5tupleIJDpT0_EEE4typeERKS8_(ptr noundef nonnull align 8 dereferenceable(8) %__t) #3 comdat {
entry:
  %__t.addr = alloca ptr, align 8
  store ptr %__t, ptr %__t.addr, align 8, !tbaa !3
  %0 = load ptr, ptr %__t.addr, align 8, !tbaa !3
  %call = call noundef nonnull align 8 dereferenceable(8) ptr @_ZSt12__get_helperILm0EPdJSt14default_deleteIA_dEEERKT0_RKSt11_Tuple_implIXT_EJS4_DpT1_EE(ptr noundef nonnull align 8 dereferenceable(8) %0) #17
  ret ptr %call
}

; Function Attrs: mustprogress nounwind uwtable
define linkonce_odr noundef ptr @_ZNKSt15__uniq_ptr_implIdSt14default_deleteIA_dEE6_M_ptrEv(ptr noundef nonnull align 8 dereferenceable(8) %this) #3 comdat align 2 {
entry:
  %this.addr = alloca ptr, align 8
  store ptr %this, ptr %this.addr, align 8, !tbaa !3
  %this1 = load ptr, ptr %this.addr, align 8
  %_M_t = getelementptr inbounds nuw %"class.std::__uniq_ptr_impl", ptr %this1, i32 0, i32 0
  %call = call noundef nonnull align 8 dereferenceable(8) ptr @_ZSt3getILm0EJPdSt14default_deleteIA_dEEERKNSt13tuple_elementIXT_ESt5tupleIJDpT0_EEE4typeERKS8_(ptr noundef nonnull align 8 dereferenceable(8) %_M_t) #17
  %0 = load ptr, ptr %call, align 8, !tbaa !3
  ret ptr %0
}

; Function Attrs: mustprogress nounwind uwtable
define linkonce_odr noundef ptr @_ZNKSt10unique_ptrIA_dSt14default_deleteIS0_EE3getEv(ptr noundef nonnull align 8 dereferenceable(8) %this) #3 comdat align 2 {
entry:
  %this.addr = alloca ptr, align 8
  store ptr %this, ptr %this.addr, align 8, !tbaa !3
  %this1 = load ptr, ptr %this.addr, align 8
  %_M_t = getelementptr inbounds nuw %"class.std::unique_ptr", ptr %this1, i32 0, i32 0
  %call = call noundef ptr @_ZNKSt15__uniq_ptr_implIdSt14default_deleteIA_dEE6_M_ptrEv(ptr noundef nonnull align 8 dereferenceable(8) %_M_t) #17
  ret ptr %call
}

; Function Attrs: inlinehint mustprogress nounwind uwtable
define linkonce_odr noundef nonnull align 8 dereferenceable(8) ptr @_ZN8QuantLib5ArrayixEm(ptr noundef nonnull align 8 dereferenceable(16) %this, i64 noundef %i) #5 comdat align 2 {
entry:
  %this.addr = alloca ptr, align 8
  %i.addr = alloca i64, align 8
  store ptr %this, ptr %this.addr, align 8, !tbaa !3
  store i64 %i, ptr %i.addr, align 8, !tbaa !9
  %this1 = load ptr, ptr %this.addr, align 8
  %data_ = getelementptr inbounds nuw %"class.QuantLib::Array", ptr %this1, i32 0, i32 0
  %call = call noundef ptr @_ZNKSt10unique_ptrIA_dSt14default_deleteIS0_EE3getEv(ptr noundef nonnull align 8 dereferenceable(8) %data_) #17
  %0 = load i64, ptr %i.addr, align 8, !tbaa !9
  %arrayidx = getelementptr inbounds nuw double, ptr %call, i64 %0
  ret ptr %arrayidx
}

; Function Attrs: inlinehint mustprogress nounwind uwtable
define linkonce_odr noundef i64 @_ZNK8QuantLib5Array4sizeEv(ptr noundef nonnull align 8 dereferenceable(16) %this) #5 comdat align 2 {
entry:
  %this.addr = alloca ptr, align 8
  store ptr %this, ptr %this.addr, align 8, !tbaa !3
  %this1 = load ptr, ptr %this.addr, align 8
  %n_ = getelementptr inbounds nuw %"class.QuantLib::Array", ptr %this1, i32 0, i32 1
  %0 = load i64, ptr %n_, align 8, !tbaa !13
  ret i64 %0
}

; Function Attrs: mustprogress nounwind uwtable
define linkonce_odr void @_ZN8QuantLib9Parameter8setParamEmd(ptr noundef nonnull align 8 dereferenceable(48) %this, i64 noundef %i, double noundef %x) #3 comdat align 2 {
entry:
  %this.addr = alloca ptr, align 8
  %i.addr = alloca i64, align 8
  %x.addr = alloca double, align 8
  store ptr %this, ptr %this.addr, align 8, !tbaa !3
  store i64 %i, ptr %i.addr, align 8, !tbaa !9
  store double %x, ptr %x.addr, align 8, !tbaa !11
  %this1 = load ptr, ptr %this.addr, align 8
  %0 = load double, ptr %x.addr, align 8, !tbaa !11
  %params_ = getelementptr inbounds nuw %"class.QuantLib::Parameter", ptr %this1, i32 0, i32 1
  %1 = load i64, ptr %i.addr, align 8, !tbaa !9
  %call = call noundef nonnull align 8 dereferenceable(8) ptr @_ZN8QuantLib5ArrayixEm(ptr noundef nonnull align 8 dereferenceable(16) %params_, i64 noundef %1)
  store double %0, ptr %call, align 8, !tbaa !11
  ret void
}

; Function Attrs: mustprogress uwtable
define linkonce_odr noundef ptr @_ZNK5boost10shared_ptrIN8QuantLib5QuoteEEptEv(ptr noundef nonnull align 8 dereferenceable(16) %this) #1 comdat align 2 {
entry:
  %this.addr = alloca ptr, align 8
  store ptr %this, ptr %this.addr, align 8, !tbaa !3
  %this1 = load ptr, ptr %this.addr, align 8
  %px = getelementptr inbounds nuw %"class.boost::shared_ptr.63", ptr %this1, i32 0, i32 0
  %0 = load ptr, ptr %px, align 8, !tbaa !54
  %cmp = icmp ne ptr %0, null
  %lnot = xor i1 %cmp, true
  %lnot2 = xor i1 %lnot, true
  %conv = zext i1 %lnot2 to i64
  %expval = call i64 @llvm.expect.i64(i64 %conv, i64 1)
  %tobool = icmp ne i64 %expval, 0
  br i1 %tobool, label %cond.true, label %cond.false

cond.true:                                        ; preds = %entry
  br label %cond.end

cond.false:                                       ; preds = %entry
  call void @_ZN5boost16assertion_failedEPKcS1_S1_l(ptr noundef @.str.21, ptr noundef @__PRETTY_FUNCTION__._ZNK5boost10shared_ptrIN8QuantLib5QuoteEEptEv, ptr noundef @.str.22, i64 noundef 784)
  br label %cond.end

cond.end:                                         ; preds = %cond.false, %cond.true
  %px3 = getelementptr inbounds nuw %"class.boost::shared_ptr.63", ptr %this1, i32 0, i32 0
  %1 = load ptr, ptr %px3, align 8, !tbaa !54
  ret ptr %1
}

; Function Attrs: mustprogress nounwind uwtable
define linkonce_odr noundef nonnull align 8 dereferenceable(16) ptr @_ZNSt6vectorIN8QuantLib6HandleINS0_5QuoteEEESaIS3_EEixEm(ptr noundef nonnull align 8 dereferenceable(24) %this, i64 noundef %__n) #3 comdat align 2 {
entry:
  %this.addr = alloca ptr, align 8
  %__n.addr = alloca i64, align 8
  store ptr %this, ptr %this.addr, align 8, !tbaa !3
  store i64 %__n, ptr %__n.addr, align 8, !tbaa !9
  %this1 = load ptr, ptr %this.addr, align 8
  %_M_impl = getelementptr inbounds nuw %"struct.std::_Vector_base.53", ptr %this1, i32 0, i32 0
  %_M_start = getelementptr inbounds nuw %"struct.std::_Vector_base<QuantLib::Handle<QuantLib::Quote>, std::allocator<QuantLib::Handle<QuantLib::Quote>>>::_Vector_impl_data", ptr %_M_impl, i32 0, i32 0
  %0 = load ptr, ptr %_M_start, align 8, !tbaa !47
  %1 = load i64, ptr %__n.addr, align 8, !tbaa !9
  %add.ptr = getelementptr inbounds nuw %"class.QuantLib::Handle.61", ptr %0, i64 %1
  ret ptr %add.ptr
}

; Function Attrs: mustprogress uwtable
define linkonce_odr noundef i64 @_ZNK8QuantLib9Parameter4sizeEv(ptr noundef nonnull align 8 dereferenceable(48) %this) #1 comdat align 2 {
entry:
  %this.addr = alloca ptr, align 8
  store ptr %this, ptr %this.addr, align 8, !tbaa !3
  %this1 = load ptr, ptr %this.addr, align 8
  %params_ = getelementptr inbounds nuw %"class.QuantLib::Parameter", ptr %this1, i32 0, i32 1
  %call = call noundef i64 @_ZNK8QuantLib5Array4sizeEv(ptr noundef nonnull align 8 dereferenceable(16) %params_)
  ret i64 %call
}

; Function Attrs: mustprogress uwtable
define void @_ZN8QuantLib3Gsr15updateReversionEv(ptr noundef nonnull align 8 dereferenceable(368) %this) #1 align 2 {
entry:
  %this.addr = alloca ptr, align 8
  %i = alloca i64, align 8
  store ptr %this, ptr %this.addr, align 8, !tbaa !3
  %this1 = load ptr, ptr %this.addr, align 8
  call void @llvm.lifetime.start.p0(i64 8, ptr %i) #17
  store i64 0, ptr %i, align 8, !tbaa !9
  br label %for.cond

for.cond:                                         ; preds = %for.inc, %entry
  %0 = load i64, ptr %i, align 8, !tbaa !9
  %reversion_ = getelementptr inbounds nuw %"class.QuantLib::Gsr", ptr %this1, i32 0, i32 3
  %1 = load ptr, ptr %reversion_, align 8, !tbaa !57
  %call = call noundef i64 @_ZNK8QuantLib9Parameter4sizeEv(ptr noundef nonnull align 8 dereferenceable(48) %1)
  %cmp = icmp ult i64 %0, %call
  br i1 %cmp, label %for.body, label %for.cond.cleanup

for.cond.cleanup:                                 ; preds = %for.cond
  call void @llvm.lifetime.end.p0(i64 8, ptr %i) #17
  br label %for.end

for.body:                                         ; preds = %for.cond
  %reversion_2 = getelementptr inbounds nuw %"class.QuantLib::Gsr", ptr %this1, i32 0, i32 3
  %2 = load ptr, ptr %reversion_2, align 8, !tbaa !57
  %3 = load i64, ptr %i, align 8, !tbaa !9
  %reversions_ = getelementptr inbounds nuw %"class.QuantLib::Gsr", ptr %this1, i32 0, i32 6
  %4 = load i64, ptr %i, align 8, !tbaa !9
  %call3 = call noundef nonnull align 8 dereferenceable(16) ptr @_ZNSt6vectorIN8QuantLib6HandleINS0_5QuoteEEESaIS3_EEixEm(ptr noundef nonnull align 8 dereferenceable(24) %reversions_, i64 noundef %4) #17
  %call4 = call noundef nonnull align 8 dereferenceable(16) ptr @_ZNK8QuantLib6HandleINS_5QuoteEEptEv(ptr noundef nonnull align 8 dereferenceable(16) %call3)
  %call5 = call noundef ptr @_ZNK5boost10shared_ptrIN8QuantLib5QuoteEEptEv(ptr noundef nonnull align 8 dereferenceable(16) %call4)
  %vtable = load ptr, ptr %call5, align 8, !tbaa !7
  %vfn = getelementptr inbounds ptr, ptr %vtable, i64 2
  %5 = load ptr, ptr %vfn, align 8
  %call6 = call noundef double %5(ptr noundef nonnull align 8 dereferenceable(8) %call5)
  call void @_ZN8QuantLib9Parameter8setParamEmd(ptr noundef nonnull align 8 dereferenceable(48) %2, i64 noundef %3, double noundef %call6)
  br label %for.inc

for.inc:                                          ; preds = %for.body
  %6 = load i64, ptr %i, align 8, !tbaa !9
  %inc = add i64 %6, 1
  store i64 %inc, ptr %i, align 8, !tbaa !9
  br label %for.cond, !llvm.loop !109

for.end:                                          ; preds = %for.cond.cleanup
  %vtable7 = load ptr, ptr %this1, align 8, !tbaa !7
  %vfn8 = getelementptr inbounds ptr, ptr %vtable7, i64 6
  %7 = load ptr, ptr %vfn8, align 8
  call void %7(ptr noundef nonnull align 8 dereferenceable(368) %this1)
  ret void
}